target datalayout = "e-m:e-p270:32:32-p271:32:32-p272:64:64-i64:64-i128:128-f80:128-n8:16:32:64-S128"
target triple = "x86_64-pc-linux-gnu"

%class.JfrBlob = type <{ ptr, %class.RefCountHandle, i64, i8, [7 x i8] }>
%class.RefCountHandle = type { ptr }
%class.RefCountPointer = type { ptr, %class.MultiThreadedRefCounter }
%class.MultiThreadedRefCounter = type { i64 }

; Function Attrs: mustprogress nounwind uwtable
define linkonce_odr hidden noundef ptr @_ZNK15RefCountPointerI7JfrBlob23MultiThreadedRefCounterEptEv(ptr noundef nonnull align 8 dereferenceable(16) %0) #1 comdat align 2 {
  %2 = alloca ptr, align 8
  store ptr %0, ptr %2, align 8
  %3 = load ptr, ptr %2, align 8
  %4 = getelementptr inbounds %class.RefCountPointer, ptr %3, i32 0, i32 0
  %5 = load ptr, ptr %4, align 8
  ret ptr %5
}

; Function Attrs: mustprogress nounwind uwtable
define linkonce_odr hidden noundef nonnull align 8 dereferenceable(16) ptr @_ZNK14RefCountHandleI15RefCountPointerI7JfrBlob23MultiThreadedRefCounterEEptEv(ptr noundef nonnull align 8 dereferenceable(8) %0) #1 comdat align 2 {
  %2 = alloca ptr, align 8
  store ptr %0, ptr %2, align 8
  %3 = load ptr, ptr %2, align 8
  %4 = getelementptr inbounds %class.RefCountHandle, ptr %3, i32 0, i32 0
  %5 = load ptr, ptr %4, align 8
  ret ptr %5
}

; Function Attrs: mustprogress nounwind uwtable
define linkonce_odr hidden noundef zeroext i1 @_ZNK14RefCountHandleI15RefCountPointerI7JfrBlob23MultiThreadedRefCounterEE5validEv(ptr noundef nonnull align 8 dereferenceable(8) %0) #1 comdat align 2 {
  %2 = alloca ptr, align 8
  store ptr %0, ptr %2, align 8
  %3 = load ptr, ptr %2, align 8
  %4 = getelementptr inbounds %class.RefCountHandle, ptr %3, i32 0, i32 0
  %5 = load ptr, ptr %4, align 8
  %6 = icmp ne ptr %5, null
  ret i1 %6
}

; Function Attrs: mustprogress nounwind uwtable
define hidden void @_ZNK7JfrBlob17reset_write_stateEv(ptr noundef nonnull align 8 dereferenceable(25) %0) #1 align 2 {
  %2 = alloca ptr, align 8
  store ptr %0, ptr %2, align 8
  %3 = load ptr, ptr %2, align 8
  %4 = getelementptr inbounds %class.JfrBlob, ptr %3, i32 0, i32 3
  %5 = load i8, ptr %4, align 8
  %6 = trunc i8 %5 to i1
  br i1 %6, label %8, label %7

7:                                                ; preds = %1
  br label %16

8:                                                ; preds = %1
  %9 = getelementptr inbounds %class.JfrBlob, ptr %3, i32 0, i32 3
  store i8 0, ptr %9, align 8
  %10 = getelementptr inbounds %class.JfrBlob, ptr %3, i32 0, i32 1
  %11 = call noundef zeroext i1 @_ZNK14RefCountHandleI15RefCountPointerI7JfrBlob23MultiThreadedRefCounterEE5validEv(ptr noundef nonnull align 8 dereferenceable(8) %10)
  br i1 %11, label %12, label %16

12:                                               ; preds = %8
  %13 = getelementptr inbounds %class.JfrBlob, ptr %3, i32 0, i32 1
  %14 = call noundef nonnull align 8 dereferenceable(16) ptr @_ZNK14RefCountHandleI15RefCountPointerI7JfrBlob23MultiThreadedRefCounterEEptEv(ptr noundef nonnull align 8 dereferenceable(8) %13)
  %15 = call noundef ptr @_ZNK15RefCountPointerI7JfrBlob23MultiThreadedRefCounterEptEv(ptr noundef nonnull align 8 dereferenceable(16) %14)
  call void @_ZNK7JfrBlob17reset_write_stateEv(ptr noundef nonnull align 8 dereferenceable(25) %15)
  br label %16

16:                                               ; preds = %12, %8, %7
  ret void
}