; Function Attrs: mustprogress nofree norecurse nosync nounwind memory(readwrite, inaccessiblemem: none) uwtable
define hidden void @_ZNK7JfrBlob17reset_write_stateEv(ptr nocapture noundef nonnull align 8 dereferenceable(25) %0) local_unnamed_addr #3 align 2 {
  %2 = getelementptr inbounds i8, ptr %0, i64 24
  %3 = load i8, ptr %2, align 8
  %4 = trunc i8 %3 to i1
  br i1 %4, label %.lr.ph, label %tailrecurse._crit_edge

.lr.ph:                                           ; preds = %1, %tailrecurse
  %5 = phi ptr [ %9, %tailrecurse ], [ %2, %1 ]
  %.tr1 = phi ptr [ %8, %tailrecurse ], [ %0, %1 ]
  store i8 0, ptr %5, align 8
  %6 = getelementptr inbounds i8, ptr %.tr1, i64 8
  %7 = load ptr, ptr %6, align 8
  %.not = icmp eq ptr %7, null
  br i1 %.not, label %tailrecurse._crit_edge, label %tailrecurse

tailrecurse:                                      ; preds = %.lr.ph
  %8 = load ptr, ptr %7, align 8
  %9 = getelementptr inbounds i8, ptr %8, i64 24
  %10 = load i8, ptr %9, align 8
  %11 = trunc i8 %10 to i1
  br i1 %11, label %.lr.ph, label %tailrecurse._crit_edge

tailrecurse._crit_edge:                           ; preds = %.lr.ph, %tailrecurse, %1
  ret void
}